; Function Attrs: nounwind uwtable
define hidden i32 @SDL_GetTextureProperties_REAL(ptr noundef %0) local_unnamed_addr #0 {
  %2 = tail call zeroext i1 @SDL_ObjectValid(ptr noundef %0, i32 noundef 3) #15
  br i1 %2, label %5, label %3

3:                                                ; preds = %1
  %4 = tail call zeroext i1 (ptr, ...) @SDL_SetError_REAL(ptr noundef nonnull @.str.2, ptr noundef nonnull @.str.52) #15
  br label %11

5:                                                ; preds = %1
  %6 = getelementptr inbounds nuw i8, ptr %0, i64 276
  %7 = load i32, ptr %6, align 4
  %8 = icmp eq i32 %7, 0
  br i1 %8, label %9, label %11

9:                                                ; preds = %5
  %10 = tail call i32 @SDL_CreateProperties_REAL() #15
  store i32 %10, ptr %6, align 4
  br label %11

11:                                               ; preds = %5, %9, %3
  %.0 = phi i32 [ 0, %3 ], [ %10, %9 ], [ %7, %5 ]
  ret i32 %.0
}